target datalayout = "e-m:e-p270:32:32-p271:32:32-p272:64:64-i64:64-i128:128-f80:128-n8:16:32:64-S128"
target triple = "x86_64-pc-linux-gnu"

; Function Attrs: nounwind uwtable
define hidden i32 @mbedtls_aes_cmac_prf_128(ptr noundef %0, i64 noundef %1, ptr noundef %2, i64 noundef %3, ptr noundef %4) #0 {
  %6 = alloca i32, align 4
  %7 = alloca ptr, align 8
  %8 = alloca i64, align 8
  %9 = alloca ptr, align 8
  %10 = alloca i64, align 8
  %11 = alloca ptr, align 8
  %12 = alloca i32, align 4
  %13 = alloca ptr, align 8
  %14 = alloca [16 x i8], align 16
  %15 = alloca [16 x i8], align 16
  %16 = alloca i32, align 4
  store ptr %0, ptr %7, align 8, !tbaa !8
  store i64 %1, ptr %8, align 8, !tbaa !10
  store ptr %2, ptr %9, align 8, !tbaa !8
  store i64 %3, ptr %10, align 8, !tbaa !10
  store ptr %4, ptr %11, align 8, !tbaa !8
  call void @llvm.lifetime.start.p0(i64 4, ptr %12) #11
  store i32 -110, ptr %12, align 4, !tbaa !17
  call void @llvm.lifetime.start.p0(i64 8, ptr %13) #11
  call void @llvm.lifetime.start.p0(i64 16, ptr %14) #11
  call void @llvm.lifetime.start.p0(i64 16, ptr %15) #11
  %17 = load ptr, ptr %7, align 8, !tbaa !8
  %18 = icmp eq ptr %17, null
  br i1 %18, label %25, label %19

19:                                               ; preds = %5
  %20 = load ptr, ptr %9, align 8, !tbaa !8
  %21 = icmp eq ptr %20, null
  br i1 %21, label %25, label %22

22:                                               ; preds = %19
  %23 = load ptr, ptr %11, align 8, !tbaa !8
  %24 = icmp eq ptr %23, null
  br i1 %24, label %25, label %26

25:                                               ; preds = %22, %19, %5
  store i32 -24832, ptr %6, align 4
  store i32 1, ptr %16, align 4
  br label %59

26:                                               ; preds = %22
  %27 = call ptr @mbedtls_cipher_info_from_type(i32 noundef 2)
  store ptr %27, ptr %13, align 8, !tbaa !20
  %28 = load ptr, ptr %13, align 8, !tbaa !20
  %29 = icmp eq ptr %28, null
  br i1 %29, label %30, label %31

30:                                               ; preds = %26
  store i32 -24704, ptr %12, align 4, !tbaa !17
  br label %56

31:                                               ; preds = %26
  %32 = load i64, ptr %8, align 8, !tbaa !10
  %33 = icmp eq i64 %32, 16
  br i1 %33, label %34, label %37

34:                                               ; preds = %31
  %35 = getelementptr inbounds [16 x i8], ptr %15, i64 0, i64 0
  %36 = load ptr, ptr %7, align 8, !tbaa !8
  call void @llvm.memcpy.p0.p0.i64(ptr align 16 %35, ptr align 1 %36, i64 16, i1 false)
  br label %49

37:                                               ; preds = %31
  %38 = getelementptr inbounds [16 x i8], ptr %14, i64 0, i64 0
  call void @llvm.memset.p0.i64(ptr align 16 %38, i8 0, i64 16, i1 false)
  %39 = load ptr, ptr %13, align 8, !tbaa !20
  %40 = getelementptr inbounds [16 x i8], ptr %14, i64 0, i64 0
  %41 = load ptr, ptr %7, align 8, !tbaa !8
  %42 = load i64, ptr %8, align 8, !tbaa !10
  %43 = getelementptr inbounds [16 x i8], ptr %15, i64 0, i64 0
  %44 = call i32 @mbedtls_cipher_cmac(ptr noundef %39, ptr noundef %40, i64 noundef 128, ptr noundef %41, i64 noundef %42, ptr noundef %43)
  store i32 %44, ptr %12, align 4, !tbaa !17
  %45 = load i32, ptr %12, align 4, !tbaa !17
  %46 = icmp ne i32 %45, 0
  br i1 %46, label %47, label %48

47:                                               ; preds = %37
  br label %56

48:                                               ; preds = %37
  br label %49

49:                                               ; preds = %48, %34
  %50 = load ptr, ptr %13, align 8, !tbaa !20
  %51 = getelementptr inbounds [16 x i8], ptr %15, i64 0, i64 0
  %52 = load ptr, ptr %9, align 8, !tbaa !8
  %53 = load i64, ptr %10, align 8, !tbaa !10
  %54 = load ptr, ptr %11, align 8, !tbaa !8
  %55 = call i32 @mbedtls_cipher_cmac(ptr noundef %50, ptr noundef %51, i64 noundef 128, ptr noundef %52, i64 noundef %53, ptr noundef %54)
  store i32 %55, ptr %12, align 4, !tbaa !17
  br label %56

56:                                               ; preds = %49, %47, %30
  %57 = getelementptr inbounds [16 x i8], ptr %15, i64 0, i64 0
  call void @mbedtls_platform_zeroize(ptr noundef %57, i64 noundef 16)
  %58 = load i32, ptr %12, align 4, !tbaa !17
  store i32 %58, ptr %6, align 4
  store i32 1, ptr %16, align 4
  br label %59

59:                                               ; preds = %56, %25
  call void @llvm.lifetime.end.p0(i64 16, ptr %15) #11
  call void @llvm.lifetime.end.p0(i64 16, ptr %14) #11
  call void @llvm.lifetime.end.p0(i64 8, ptr %13) #11
  call void @llvm.lifetime.end.p0(i64 4, ptr %12) #11
  %60 = load i32, ptr %6, align 4
  ret i32 %60
}