; Function Attrs: nounwind uwtable
define hidden i32 @mbedtls_aes_cmac_prf_128(ptr noundef %0, i64 noundef %1, ptr noundef %2, i64 noundef %3, ptr noundef %4) local_unnamed_addr #0 {
  %6 = alloca [16 x i8], align 16
  %7 = alloca [16 x i8], align 16
  call void @llvm.lifetime.start.p0(i64 16, ptr nonnull %6) #13
  call void @llvm.lifetime.start.p0(i64 16, ptr nonnull %7) #13
  %8 = icmp eq ptr %0, null
  %9 = icmp eq ptr %2, null
  %or.cond = or i1 %8, %9
  %10 = icmp eq ptr %4, null
  %or.cond3 = or i1 %or.cond, %10
  br i1 %or.cond3, label %22, label %11

11:                                               ; preds = %5
  %12 = tail call ptr @mbedtls_cipher_info_from_type(i32 noundef 2) #13
  %13 = icmp eq ptr %12, null
  br i1 %13, label %21, label %14

14:                                               ; preds = %11
  %15 = icmp eq i64 %1, 16
  br i1 %15, label %16, label %17

16:                                               ; preds = %14
  call void @llvm.memcpy.p0.p0.i64(ptr noundef nonnull align 16 dereferenceable(16) %7, ptr noundef nonnull align 1 dereferenceable(16) %0, i64 16, i1 false)
  br label %19

17:                                               ; preds = %14
  call void @llvm.memset.p0.i64(ptr noundef nonnull align 16 dereferenceable(16) %6, i8 0, i64 16, i1 false)
  %18 = call i32 @mbedtls_cipher_cmac(ptr noundef nonnull %12, ptr noundef nonnull %6, i64 noundef 128, ptr noundef nonnull %0, i64 noundef %1, ptr noundef nonnull %7)
  %.not = icmp eq i32 %18, 0
  br i1 %.not, label %19, label %21

19:                                               ; preds = %17, %16
  %20 = call i32 @mbedtls_cipher_cmac(ptr noundef nonnull %12, ptr noundef nonnull %7, i64 noundef 128, ptr noundef nonnull %2, i64 noundef %3, ptr noundef nonnull %4)
  br label %21

21:                                               ; preds = %11, %17, %19
  %.018 = phi i32 [ %20, %19 ], [ %18, %17 ], [ -24704, %11 ]
  call void @mbedtls_platform_zeroize(ptr noundef nonnull %7, i64 noundef 16) #13
  br label %22

22:                                               ; preds = %5, %21
  %.0 = phi i32 [ %.018, %21 ], [ -24832, %5 ]
  call void @llvm.lifetime.end.p0(i64 16, ptr nonnull %7) #13
  call void @llvm.lifetime.end.p0(i64 16, ptr nonnull %6) #13
  ret i32 %.0
}